; Function Attrs: nounwind uwtable
define dso_local i64 @uuid_out(ptr noundef readonly captures(none) %0) local_unnamed_addr #0 {
  %2 = getelementptr inbounds nuw i8, ptr %0, i64 32
  %3 = load i64, ptr %2, align 8
  %4 = inttoptr i64 %3 to ptr
  %5 = tail call ptr @palloc(i64 noundef 37) #15
  br label %6

6:                                                ; preds = %1, %11
  %indvars.iv = phi i64 [ 0, %1 ], [ %indvars.iv.next, %11 ]
  %.025 = phi ptr [ %5, %1 ], [ %24, %11 ]
  %7 = trunc nuw nsw i64 %indvars.iv to i32
  %8 = and i32 %7, 13
  switch i32 %8, label %11 [
    i32 8, label %9
    i32 4, label %9
  ]

9:                                                ; preds = %6, %6
  %10 = getelementptr inbounds nuw i8, ptr %.025, i64 1
  store i8 45, ptr %.025, align 1
  br label %11

11:                                               ; preds = %6, %9
  %.1 = phi ptr [ %10, %9 ], [ %.025, %6 ]
  %12 = getelementptr inbounds nuw [16 x i8], ptr %4, i64 0, i64 %indvars.iv
  %13 = load i8, ptr %12, align 1
  %14 = zext i8 %13 to i32
  %15 = lshr i32 %14, 4
  %16 = and i32 %14, 15
  %17 = zext nneg i32 %15 to i64
  %18 = getelementptr inbounds nuw [17 x i8], ptr @uuid_out.hex_chars, i64 0, i64 %17
  %19 = load i8, ptr %18, align 1
  %20 = getelementptr inbounds nuw i8, ptr %.1, i64 1
  store i8 %19, ptr %.1, align 1
  %21 = zext nneg i32 %16 to i64
  %22 = getelementptr inbounds nuw [17 x i8], ptr @uuid_out.hex_chars, i64 0, i64 %21
  %23 = load i8, ptr %22, align 1
  %24 = getelementptr inbounds nuw i8, ptr %.1, i64 2
  store i8 %23, ptr %20, align 1
  %indvars.iv.next = add nuw nsw i64 %indvars.iv, 1
  %exitcond.not = icmp eq i64 %indvars.iv.next, 16
  br i1 %exitcond.not, label %25, label %6, !llvm.loop !6

25:                                               ; preds = %11
  store i8 0, ptr %24, align 1
  %26 = ptrtoint ptr %5 to i64
  ret i64 %26
}